; Function Attrs: mustprogress uwtable
define internal void @_ZN2cvL12randShuffle_INS_3VecIiLi2EEEEEvRNS_3MatERNS_3RNGEd(ptr noundef nonnull align 8 dereferenceable(96) %0, ptr nocapture noundef nonnull align 8 dereferenceable(8) %1, double %2) #1 personality ptr @__gxx_personality_v0 {
  %4 = alloca %"class.std::__cxx11::basic_string", align 8
  %5 = alloca %"class.std::allocator", align 1
  %6 = tail call noundef i64 @_ZNK2cv3Mat5totalEv(ptr noundef nonnull align 8 dereferenceable(96) %0)
  %7 = trunc i64 %6 to i32
  %8 = load i32, ptr %0, align 8
  %9 = and i32 %8, 16384
  %.not = icmp eq i32 %9, 0
  br i1 %.not, label %25, label %10

10:                                               ; preds = %3
  %11 = getelementptr inbounds i8, ptr %0, i64 16
  %12 = load ptr, ptr %11, align 8
  %.not53 = icmp eq i32 %7, 0
  br i1 %.not53, label %.loopexit, label %.lr.ph.preheader

.lr.ph.preheader:                                 ; preds = %10
  %wide.trip.count = and i64 %6, 4294967295
  br label %.lr.ph

.lr.ph:                                           ; preds = %.lr.ph.preheader, %.lr.ph
  %indvars.iv = phi i64 [ 0, %.lr.ph.preheader ], [ %indvars.iv.next, %.lr.ph ]
  %13 = load i64, ptr %1, align 8
  %14 = and i64 %13, 4294967295
  %15 = mul nuw i64 %14, 4164903690
  %16 = lshr i64 %13, 32
  %17 = add nuw i64 %15, %16
  store i64 %17, ptr %1, align 8
  %18 = trunc i64 %17 to i32
  %19 = urem i32 %18, %7
  %20 = zext i32 %19 to i64
  %21 = getelementptr inbounds %"class.cv::Vec", ptr %12, i64 %20
  %22 = getelementptr inbounds %"class.cv::Vec", ptr %12, i64 %indvars.iv
  %23 = load i64, ptr %21, align 4
  %24 = load i64, ptr %22, align 4
  store i64 %24, ptr %21, align 4
  store i64 %23, ptr %22, align 4
  %indvars.iv.next = add nuw nsw i64 %indvars.iv, 1
  %exitcond.not = icmp eq i64 %indvars.iv.next, %wide.trip.count
  br i1 %exitcond.not, label %.loopexit, label %.lr.ph, !llvm.loop !55

25:                                               ; preds = %3
  %26 = getelementptr inbounds i8, ptr %0, i64 4
  %27 = load i32, ptr %26, align 4
  %28 = icmp slt i32 %27, 3
  br i1 %28, label %37, label %29

29:                                               ; preds = %25
  call void @_ZNSaIcEC1Ev(ptr noundef nonnull align 1 dereferenceable(1) %5) #19
  invoke void @_ZNSt7__cxx1112basic_stringIcSt11char_traitsIcESaIcEEC1EPKcRKS3_(ptr noundef nonnull align 8 dereferenceable(32) %4, ptr noundef nonnull @.str.11, ptr noundef nonnull align 1 dereferenceable(1) %5)
          to label %30 unwind label %32

30:                                               ; preds = %29
  invoke void @_ZN2cv5errorEiRKNSt7__cxx1112basic_stringIcSt11char_traitsIcESaIcEEEPKcS9_i(i32 noundef -215, ptr noundef nonnull align 8 dereferenceable(32) %4, ptr noundef nonnull @__func__._ZN2cvL12randShuffle_IhEEvRNS_3MatERNS_3RNGEd, ptr noundef nonnull @.str.1, i32 noundef 697) #20
          to label %31 unwind label %34

31:                                               ; preds = %30
  unreachable

32:                                               ; preds = %29
  %33 = landingpad { ptr, i32 }
          cleanup
  br label %36

34:                                               ; preds = %30
  %35 = landingpad { ptr, i32 }
          cleanup
  call void @_ZNSt7__cxx1112basic_stringIcSt11char_traitsIcESaIcEED1Ev(ptr noundef nonnull align 8 dereferenceable(32) %4) #19
  br label %36

36:                                               ; preds = %34, %32
  %.pn = phi { ptr, i32 } [ %35, %34 ], [ %33, %32 ]
  call void @_ZNSaIcED1Ev(ptr noundef nonnull align 1 dereferenceable(1) %5) #19
  resume { ptr, i32 } %.pn

37:                                               ; preds = %25
  %38 = getelementptr inbounds i8, ptr %0, i64 16
  %39 = load ptr, ptr %38, align 8
  %40 = getelementptr inbounds i8, ptr %0, i64 72
  %41 = getelementptr inbounds i8, ptr %0, i64 80
  %42 = load i64, ptr %41, align 8
  %43 = getelementptr inbounds i8, ptr %0, i64 8
  %44 = load i32, ptr %43, align 8
  %45 = getelementptr inbounds i8, ptr %0, i64 12
  %46 = load i32, ptr %45, align 4
  %47 = icmp sgt i32 %44, 0
  %48 = icmp sgt i32 %46, 0
  %or.cond = select i1 %47, i1 %48, i1 false
  br i1 %or.cond, label %.lr.ph49.us.preheader, label %.loopexit

.lr.ph49.us.preheader:                            ; preds = %37
  %wide.trip.count65 = zext nneg i32 %44 to i64
  %wide.trip.count60 = zext nneg i32 %46 to i64
  br label %.lr.ph49.us

.lr.ph49.us:                                      ; preds = %.lr.ph49.us.preheader, %._crit_edge.us
  %indvars.iv62 = phi i64 [ 0, %.lr.ph49.us.preheader ], [ %indvars.iv.next63, %._crit_edge.us ]
  %49 = load ptr, ptr %38, align 8
  %50 = load ptr, ptr %40, align 8
  %51 = load i64, ptr %50, align 8
  %52 = mul i64 %51, %indvars.iv62
  %53 = getelementptr inbounds i8, ptr %49, i64 %52
  br label %54

54:                                               ; preds = %.lr.ph49.us, %54
  %indvars.iv57 = phi i64 [ 0, %.lr.ph49.us ], [ %indvars.iv.next58, %54 ]
  %55 = load i64, ptr %1, align 8
  %56 = and i64 %55, 4294967295
  %57 = mul nuw i64 %56, 4164903690
  %58 = lshr i64 %55, 32
  %59 = add nuw i64 %57, %58
  store i64 %59, ptr %1, align 8
  %60 = trunc i64 %59 to i32
  %61 = urem i32 %60, %7
  %62 = udiv i32 %61, %46
  %63 = mul i32 %62, %46
  %.recomposed = urem i32 %61, %46
  %64 = getelementptr inbounds %"class.cv::Vec", ptr %53, i64 %indvars.iv57
  %65 = sext i32 %62 to i64
  %66 = mul i64 %42, %65
  %67 = getelementptr inbounds i8, ptr %39, i64 %66
  %68 = sext i32 %.recomposed to i64
  %69 = getelementptr inbounds %"class.cv::Vec", ptr %67, i64 %68
  %70 = load i64, ptr %64, align 4
  %71 = load i64, ptr %69, align 4
  store i64 %71, ptr %64, align 4
  store i64 %70, ptr %69, align 4
  %indvars.iv.next58 = add nuw nsw i64 %indvars.iv57, 1
  %exitcond61.not = icmp eq i64 %indvars.iv.next58, %wide.trip.count60
  br i1 %exitcond61.not, label %._crit_edge.us, label %54, !llvm.loop !56

._crit_edge.us:                                   ; preds = %54
  %indvars.iv.next63 = add nuw nsw i64 %indvars.iv62, 1
  %exitcond66.not = icmp eq i64 %indvars.iv.next63, %wide.trip.count65
  br i1 %exitcond66.not, label %.loopexit, label %.lr.ph49.us, !llvm.loop !57

.loopexit:                                        ; preds = %.lr.ph, %._crit_edge.us, %10, %37
  ret void
}